target datalayout = "e-m:e-p270:32:32-p271:32:32-p272:64:64-i64:64-i128:128-f80:128-n8:16:32:64-S128"
target triple = "x86_64-pc-linux-gnu"

; Function Attrs: nounwind uwtable
define internal i32 @hwloc_linux_membind_policy_to_hwloc(i32 noundef %0, ptr noundef %1) #0 {
  %3 = alloca i32, align 4
  %4 = alloca i32, align 4
  %5 = alloca ptr, align 8
  store i32 %0, ptr %4, align 4, !tbaa !10
  store ptr %1, ptr %5, align 8, !tbaa !21
  %6 = load i32, ptr %4, align 4, !tbaa !10
  switch i32 %6, label %15 [
    i32 0, label %7
    i32 4, label %7
    i32 1, label %9
    i32 5, label %9
    i32 2, label %9
    i32 3, label %11
    i32 6, label %13
  ]

7:                                                ; preds = %2, %2
  %8 = load ptr, ptr %5, align 8, !tbaa !21
  store i32 1, ptr %8, align 4, !tbaa !10
  store i32 0, ptr %3, align 4
  br label %17

9:                                                ; preds = %2, %2, %2
  %10 = load ptr, ptr %5, align 8, !tbaa !21
  store i32 2, ptr %10, align 4, !tbaa !10
  store i32 0, ptr %3, align 4
  br label %17

11:                                               ; preds = %2
  %12 = load ptr, ptr %5, align 8, !tbaa !21
  store i32 3, ptr %12, align 4, !tbaa !10
  store i32 0, ptr %3, align 4
  br label %17

13:                                               ; preds = %2
  %14 = load ptr, ptr %5, align 8, !tbaa !21
  store i32 5, ptr %14, align 4, !tbaa !10
  store i32 0, ptr %3, align 4
  br label %17

15:                                               ; preds = %2
  %16 = call ptr @__errno_location() #18
  store i32 22, ptr %16, align 4, !tbaa !10
  store i32 -1, ptr %3, align 4
  br label %17

17:                                               ; preds = %15, %13, %11, %9, %7
  %18 = load i32, ptr %3, align 4
  ret i32 %18
}

; Function Attrs: nounwind uwtable
define internal void @hwloc_linux_membind_mask_to_nodeset(ptr noundef %0, ptr noundef %1, i32 noundef %2, ptr noundef %3) #0 {
  %5 = alloca ptr, align 8
  %6 = alloca ptr, align 8
  %7 = alloca i32, align 4
  %8 = alloca ptr, align 8
  %9 = alloca i32, align 4
  store ptr %0, ptr %5, align 8, !tbaa !19
  store ptr %1, ptr %6, align 8, !tbaa !8
  store i32 %2, ptr %7, align 4, !tbaa !10
  store ptr %3, ptr %8, align 8, !tbaa !14
  call void @llvm.lifetime.start.p0(i64 4, ptr %9) #14
  %10 = load ptr, ptr %6, align 8, !tbaa !8
  call void @hwloc_bitmap_zero(ptr noundef %10)
  store i32 0, ptr %9, align 4, !tbaa !10
  br label %11

11:                                               ; preds = %25, %4
  %12 = load i32, ptr %9, align 4, !tbaa !10
  %13 = load i32, ptr %7, align 4, !tbaa !10
  %14 = udiv i32 %13, 64
  %15 = icmp ult i32 %12, %14
  br i1 %15, label %16, label %28

16:                                               ; preds = %11
  %17 = load ptr, ptr %6, align 8, !tbaa !8
  %18 = load i32, ptr %9, align 4, !tbaa !10
  %19 = load ptr, ptr %8, align 8, !tbaa !14
  %20 = load i32, ptr %9, align 4, !tbaa !10
  %21 = zext i32 %20 to i64
  %22 = getelementptr inbounds nuw i64, ptr %19, i64 %21
  %23 = load i64, ptr %22, align 8, !tbaa !12
  %24 = call i32 @hwloc_bitmap_set_ith_ulong(ptr noundef %17, i32 noundef %18, i64 noundef %23)
  br label %25

25:                                               ; preds = %16
  %26 = load i32, ptr %9, align 4, !tbaa !10
  %27 = add i32 %26, 1
  store i32 %27, ptr %9, align 4, !tbaa !10
  br label %11, !llvm.loop !126

28:                                               ; preds = %11
  call void @llvm.lifetime.end.p0(i64 4, ptr %9) #14
  ret void
}

; Function Attrs: nounwind uwtable
define internal i32 @hwloc_linux_mask_is_empty(i32 noundef %0, ptr noundef %1) #0 {
  %3 = alloca i32, align 4
  %4 = alloca i32, align 4
  %5 = alloca ptr, align 8
  %6 = alloca i32, align 4
  %7 = alloca i32, align 4
  store i32 %0, ptr %4, align 4, !tbaa !10
  store ptr %1, ptr %5, align 8, !tbaa !14
  call void @llvm.lifetime.start.p0(i64 4, ptr %6) #14
  store i32 0, ptr %6, align 4, !tbaa !10
  br label %8

8:                                                ; preds = %22, %2
  %9 = load i32, ptr %6, align 4, !tbaa !10
  %10 = load i32, ptr %4, align 4, !tbaa !10
  %11 = udiv i32 %10, 64
  %12 = icmp ult i32 %9, %11
  br i1 %12, label %13, label %25

13:                                               ; preds = %8
  %14 = load ptr, ptr %5, align 8, !tbaa !14
  %15 = load i32, ptr %6, align 4, !tbaa !10
  %16 = zext i32 %15 to i64
  %17 = getelementptr inbounds nuw i64, ptr %14, i64 %16
  %18 = load i64, ptr %17, align 8, !tbaa !12
  %19 = icmp ne i64 %18, 0
  br i1 %19, label %20, label %21

20:                                               ; preds = %13
  store i32 0, ptr %3, align 4
  store i32 1, ptr %7, align 4
  br label %26

21:                                               ; preds = %13
  br label %22

22:                                               ; preds = %21
  %23 = load i32, ptr %6, align 4, !tbaa !10
  %24 = add i32 %23, 1
  store i32 %24, ptr %6, align 4, !tbaa !10
  br label %8, !llvm.loop !125

25:                                               ; preds = %8
  store i32 1, ptr %3, align 4
  store i32 1, ptr %7, align 4
  br label %26

26:                                               ; preds = %25, %20
  call void @llvm.lifetime.end.p0(i64 4, ptr %6) #14
  %27 = load i32, ptr %3, align 4
  ret i32 %27
}

; Function Attrs: inlinehint nounwind uwtable
define internal i64 @hwloc_get_mempolicy(ptr noundef %0, ptr noundef %1, i64 noundef %2, ptr noundef %3, i32 noundef %4) #1 {
  %6 = alloca ptr, align 8
  %7 = alloca ptr, align 8
  %8 = alloca i64, align 8
  %9 = alloca ptr, align 8
  %10 = alloca i32, align 4
  store ptr %0, ptr %6, align 8, !tbaa !91
  store ptr %1, ptr %7, align 8, !tbaa !14
  store i64 %2, ptr %8, align 8, !tbaa !12
  store ptr %3, ptr %9, align 8, !tbaa !21
  store i32 %4, ptr %10, align 4, !tbaa !10
  %11 = load ptr, ptr %6, align 8, !tbaa !91
  %12 = load ptr, ptr %7, align 8, !tbaa !14
  %13 = load i64, ptr %8, align 8, !tbaa !12
  %14 = load ptr, ptr %9, align 8, !tbaa !21
  %15 = load i32, ptr %10, align 4, !tbaa !10
  %16 = call i64 (i64, ...) @syscall(i64 noundef 239, ptr noundef %11, ptr noundef %12, i64 noundef %13, ptr noundef %14, i32 noundef %15) #14
  ret i64 %16
}

; Function Attrs: nounwind uwtable
define internal i32 @hwloc_linux_get_thisthread_membind(ptr noundef %0, ptr noundef %1, ptr noundef %2, i32 noundef %3) #0 {
  %5 = alloca i32, align 4
  %6 = alloca ptr, align 8
  %7 = alloca ptr, align 8
  %8 = alloca ptr, align 8
  %9 = alloca i32, align 4
  %10 = alloca i32, align 4
  %11 = alloca ptr, align 8
  %12 = alloca i32, align 4
  %13 = alloca i32, align 4
  %14 = alloca i32, align 4
  store ptr %0, ptr %6, align 8, !tbaa !19
  store ptr %1, ptr %7, align 8, !tbaa !8
  store ptr %2, ptr %8, align 8, !tbaa !21
  store i32 %3, ptr %9, align 4, !tbaa !10
  call void @llvm.lifetime.start.p0(i64 4, ptr %10) #14
  call void @llvm.lifetime.start.p0(i64 8, ptr %11) #14
  call void @llvm.lifetime.start.p0(i64 4, ptr %12) #14
  call void @llvm.lifetime.start.p0(i64 4, ptr %13) #14
  %15 = load ptr, ptr %6, align 8, !tbaa !19
  %16 = call i32 @hwloc_linux_find_kernel_max_numnodes(ptr noundef %15)
  store i32 %16, ptr %10, align 4, !tbaa !10
  %17 = load i32, ptr %10, align 4, !tbaa !10
  %18 = udiv i32 %17, 64
  %19 = zext i32 %18 to i64
  %20 = mul i64 %19, 8
  %21 = call noalias ptr @malloc(i64 noundef %20) #15
  store ptr %21, ptr %11, align 8, !tbaa !14
  %22 = load ptr, ptr %11, align 8, !tbaa !14
  %23 = icmp ne ptr %22, null
  br i1 %23, label %25, label %24

24:                                               ; preds = %4
  br label %70

25:                                               ; preds = %4
  %26 = load ptr, ptr %11, align 8, !tbaa !14
  %27 = load i32, ptr %10, align 4, !tbaa !10
  %28 = zext i32 %27 to i64
  %29 = call i64 @hwloc_get_mempolicy(ptr noundef %12, ptr noundef %26, i64 noundef %28, ptr noundef null, i32 noundef 0)
  %30 = trunc i64 %29 to i32
  store i32 %30, ptr %13, align 4, !tbaa !10
  %31 = load i32, ptr %13, align 4, !tbaa !10
  %32 = icmp slt i32 %31, 0
  br i1 %32, label %33, label %34

33:                                               ; preds = %25
  br label %68

34:                                               ; preds = %25
  %35 = load i32, ptr %12, align 4, !tbaa !10
  %36 = icmp eq i32 %35, 1
  br i1 %36, label %37, label %43

37:                                               ; preds = %34
  %38 = load i32, ptr %10, align 4, !tbaa !10
  %39 = load ptr, ptr %11, align 8, !tbaa !14
  %40 = call i32 @hwloc_linux_mask_is_empty(i32 noundef %38, ptr noundef %39)
  %41 = icmp ne i32 %40, 0
  br i1 %41, label %42, label %43

42:                                               ; preds = %37
  store i32 4, ptr %12, align 4, !tbaa !10
  br label %43

43:                                               ; preds = %42, %37, %34
  %44 = load i32, ptr %12, align 4, !tbaa !10
  %45 = icmp eq i32 %44, 0
  br i1 %45, label %49, label %46

46:                                               ; preds = %43
  %47 = load i32, ptr %12, align 4, !tbaa !10
  %48 = icmp eq i32 %47, 4
  br i1 %48, label %49, label %54

49:                                               ; preds = %46, %43
  %50 = load ptr, ptr %7, align 8, !tbaa !8
  %51 = load ptr, ptr %6, align 8, !tbaa !19
  %52 = call ptr @hwloc_topology_get_topology_nodeset(ptr noundef %51) #17
  %53 = call i32 @hwloc_bitmap_copy(ptr noundef %50, ptr noundef %52)
  br label %59

54:                                               ; preds = %46
  %55 = load ptr, ptr %6, align 8, !tbaa !19
  %56 = load ptr, ptr %7, align 8, !tbaa !8
  %57 = load i32, ptr %10, align 4, !tbaa !10
  %58 = load ptr, ptr %11, align 8, !tbaa !14
  call void @hwloc_linux_membind_mask_to_nodeset(ptr noundef %55, ptr noundef %56, i32 noundef %57, ptr noundef %58)
  br label %59

59:                                               ; preds = %54, %49
  %60 = load i32, ptr %12, align 4, !tbaa !10
  %61 = load ptr, ptr %8, align 8, !tbaa !21
  %62 = call i32 @hwloc_linux_membind_policy_to_hwloc(i32 noundef %60, ptr noundef %61)
  store i32 %62, ptr %13, align 4, !tbaa !10
  %63 = load i32, ptr %13, align 4, !tbaa !10
  %64 = icmp slt i32 %63, 0
  br i1 %64, label %65, label %66

65:                                               ; preds = %59
  br label %68

66:                                               ; preds = %59
  %67 = load ptr, ptr %11, align 8, !tbaa !14
  call void @free(ptr noundef %67) #14
  store i32 0, ptr %5, align 4
  store i32 1, ptr %14, align 4
  br label %71

68:                                               ; preds = %65, %33
  %69 = load ptr, ptr %11, align 8, !tbaa !14
  call void @free(ptr noundef %69) #14
  br label %70

70:                                               ; preds = %68, %24
  store i32 -1, ptr %5, align 4
  store i32 1, ptr %14, align 4
  br label %71

71:                                               ; preds = %70, %66
  call void @llvm.lifetime.end.p0(i64 4, ptr %13) #14
  call void @llvm.lifetime.end.p0(i64 4, ptr %12) #14
  call void @llvm.lifetime.end.p0(i64 8, ptr %11) #14
  call void @llvm.lifetime.end.p0(i64 4, ptr %10) #14
  %72 = load i32, ptr %5, align 4
  ret i32 %72
}