; Function Attrs: nounwind uwtable
define internal range(i32 -1, 1) i32 @hwloc_linux_get_thisthread_membind(ptr noundef %0, ptr noundef %1, ptr noundef writeonly captures(none) %2, i32 %3) #0 {
  %5 = alloca i32, align 4
  call void @llvm.lifetime.start.p0(i64 4, ptr nonnull %5) #27
  %6 = tail call fastcc i32 @hwloc_linux_find_kernel_max_numnodes()
  %7 = lshr i32 %6, 3
  %8 = and i32 %7, 536870904
  %9 = zext nneg i32 %8 to i64
  %10 = tail call noalias ptr @malloc(i64 noundef %9) #28
  %.not = icmp eq ptr %10, null
  br i1 %.not, label %36, label %11

11:                                               ; preds = %4
  %12 = zext i32 %6 to i64
  %13 = call i64 (i64, ...) @syscall(i64 noundef 239, ptr noundef nonnull %5, ptr noundef nonnull %10, i64 noundef range(i64 -2147483648, 4294967296) %12, ptr noundef null, i32 noundef 0) #27
  %14 = and i64 %13, 2147483648
  %.not20 = icmp eq i64 %14, 0
  br i1 %.not20, label %15, label %.sink.split

15:                                               ; preds = %11
  %16 = load i32, ptr %5, align 4, !tbaa !3
  %17 = icmp eq i32 %16, 1
  br i1 %17, label %18, label %hwloc_linux_mask_is_empty.exit

18:                                               ; preds = %15
  %.not9.i = icmp ult i32 %6, 64
  br i1 %.not9.i, label %hwloc_linux_mask_is_empty.exit.thread, label %.lr.ph.preheader.i

.lr.ph.preheader.i:                               ; preds = %18
  %19 = lshr i32 %6, 6
  %wide.trip.count.i = zext nneg i32 %19 to i64
  br label %.lr.ph.i

20:                                               ; preds = %.lr.ph.i
  %indvars.iv.next.i = add nuw nsw i64 %indvars.iv.i, 1
  %exitcond.not.i = icmp eq i64 %indvars.iv.next.i, %wide.trip.count.i
  br i1 %exitcond.not.i, label %hwloc_linux_mask_is_empty.exit.thread, label %.lr.ph.i, !llvm.loop !86

.lr.ph.i:                                         ; preds = %20, %.lr.ph.preheader.i
  %indvars.iv.i = phi i64 [ 0, %.lr.ph.preheader.i ], [ %indvars.iv.next.i, %20 ]
  %21 = getelementptr inbounds nuw i64, ptr %10, i64 %indvars.iv.i
  %22 = load i64, ptr %21, align 8, !tbaa !10
  %.not.i = icmp eq i64 %22, 0
  br i1 %.not.i, label %20, label %hwloc_linux_mask_is_empty.exit.thread33

hwloc_linux_mask_is_empty.exit.thread:            ; preds = %20, %18
  store i32 4, ptr %5, align 4, !tbaa !3
  br label %24

hwloc_linux_mask_is_empty.exit:                   ; preds = %15
  %23 = and i32 %16, -5
  %or.cond = icmp eq i32 %23, 0
  br i1 %or.cond, label %24, label %hwloc_linux_mask_is_empty.exit.thread33

24:                                               ; preds = %hwloc_linux_mask_is_empty.exit.thread, %hwloc_linux_mask_is_empty.exit
  %25 = call ptr @hwloc_topology_get_topology_nodeset(ptr noundef %0) #30
  %26 = call i32 @hwloc_bitmap_copy(ptr noundef %1, ptr noundef %25) #27
  br label %hwloc_linux_membind_mask_to_nodeset.exit

hwloc_linux_mask_is_empty.exit.thread33:          ; preds = %.lr.ph.i, %hwloc_linux_mask_is_empty.exit
  call void @hwloc_bitmap_zero(ptr noundef %1) #27
  %.not.i22 = icmp ult i32 %6, 64
  br i1 %.not.i22, label %hwloc_linux_membind_mask_to_nodeset.exit, label %.lr.ph.preheader.i23

.lr.ph.preheader.i23:                             ; preds = %hwloc_linux_mask_is_empty.exit.thread33
  %27 = lshr i32 %6, 6
  %wide.trip.count.i24 = zext nneg i32 %27 to i64
  br label %.lr.ph.i25

.lr.ph.i25:                                       ; preds = %.lr.ph.i25, %.lr.ph.preheader.i23
  %indvars.iv.i26 = phi i64 [ 0, %.lr.ph.preheader.i23 ], [ %indvars.iv.next.i27, %.lr.ph.i25 ]
  %28 = getelementptr inbounds nuw i64, ptr %10, i64 %indvars.iv.i26
  %29 = load i64, ptr %28, align 8, !tbaa !10
  %30 = trunc nuw nsw i64 %indvars.iv.i26 to i32
  %31 = call i32 @hwloc_bitmap_set_ith_ulong(ptr noundef %1, i32 noundef %30, i64 noundef %29) #27
  %indvars.iv.next.i27 = add nuw nsw i64 %indvars.iv.i26, 1
  %exitcond.not.i28 = icmp eq i64 %indvars.iv.next.i27, %wide.trip.count.i24
  br i1 %exitcond.not.i28, label %hwloc_linux_membind_mask_to_nodeset.exit, label %.lr.ph.i25, !llvm.loop !87

hwloc_linux_membind_mask_to_nodeset.exit:         ; preds = %.lr.ph.i25, %hwloc_linux_mask_is_empty.exit.thread33, %24
  %32 = load i32, ptr %5, align 4, !tbaa !3
  %33 = icmp ult i32 %32, 7
  br i1 %33, label %switch.lookup, label %hwloc_linux_membind_policy_to_hwloc.exit

hwloc_linux_membind_policy_to_hwloc.exit:         ; preds = %hwloc_linux_membind_mask_to_nodeset.exit
  %34 = tail call ptr @__errno_location() #31
  store i32 22, ptr %34, align 4, !tbaa !3
  br label %.sink.split

switch.lookup:                                    ; preds = %hwloc_linux_membind_mask_to_nodeset.exit
  %35 = zext nneg i32 %32 to i64
  %switch.gep = getelementptr inbounds nuw [7 x i32], ptr @switch.table.hwloc_linux_get_thisthread_membind, i64 0, i64 %35
  %switch.load = load i32, ptr %switch.gep, align 4
  store i32 %switch.load, ptr %2, align 4, !tbaa !3
  br label %.sink.split

.sink.split:                                      ; preds = %11, %hwloc_linux_membind_policy_to_hwloc.exit, %switch.lookup
  %.0.ph = phi i32 [ 0, %switch.lookup ], [ -1, %hwloc_linux_membind_policy_to_hwloc.exit ], [ -1, %11 ]
  call void @free(ptr noundef %10) #27
  br label %36

36:                                               ; preds = %.sink.split, %4
  %.0 = phi i32 [ -1, %4 ], [ %.0.ph, %.sink.split ]
  call void @llvm.lifetime.end.p0(i64 4, ptr nonnull %5) #27
  ret i32 %.0
}